target datalayout = "e-m:e-p270:32:32-p271:32:32-p272:64:64-i64:64-i128:128-f80:128-n8:16:32:64-S128"
target triple = "x86_64-pc-linux-gnu"

%class.GenDCmdArgument = type <{ ptr, ptr, ptr, ptr, ptr, ptr, i8, i8, i8, [5 x i8] }>
%class.GenDCmdArgument.base = type <{ ptr, ptr, ptr, ptr, ptr, ptr, i8, i8, i8 }>
%class.DCmdArgument.6 = type { %class.GenDCmdArgument.base, ptr }

@.str = private unnamed_addr constant [50 x i8] c"src/hotspot/share/services/diagnosticArgument.cpp\00", align 1
@g_assert_poison = external global ptr, align 8
@.str.30 = private unnamed_addr constant [46 x i8] c"StringArrayArgument cannot have default value\00", align 1
@_ZN19StringArrayArgumentC1Ev = hidden unnamed_addr alias void (ptr), ptr @_ZN19StringArrayArgumentC2Ev

; Function Attrs: mustprogress nounwind uwtable
define linkonce_odr hidden noundef zeroext i1 @_ZNK15GenDCmdArgument11has_defaultEv(ptr noundef nonnull align 8 dereferenceable(51) %0) #1 comdat align 2 {
  %2 = alloca ptr, align 8
  store ptr %0, ptr %2, align 8
  %3 = load ptr, ptr %2, align 8
  %4 = getelementptr inbounds %class.GenDCmdArgument, ptr %3, i32 0, i32 5
  %5 = load ptr, ptr %4, align 8
  %6 = icmp ne ptr %5, null
  ret i1 %6
}

; Function Attrs: mustprogress nounwind uwtable
define hidden void @_ZN12DCmdArgumentIP19StringArrayArgumentE10init_valueEP10JavaThread(ptr noundef nonnull align 8 dereferenceable(64) %0, ptr noundef %1) unnamed_addr #1 align 2 {
  %3 = alloca i64, align 8
  %4 = alloca i8, align 1
  %5 = alloca i64, align 8
  %6 = alloca ptr, align 8
  %7 = alloca ptr, align 8
  store ptr %0, ptr %6, align 8
  store ptr %1, ptr %7, align 8
  %8 = load ptr, ptr %6, align 8
  store i64 8, ptr %5, align 8
  %9 = load i64, ptr %5, align 8
  store i64 %9, ptr %3, align 8
  store i8 9, ptr %4, align 1
  %10 = load i64, ptr %3, align 8
  %11 = load i8, ptr %4, align 1
  %12 = call noundef ptr @_Z12AllocateHeapm8MEMFLAGSN17AllocFailStrategy13AllocFailEnumE(i64 noundef %10, i8 noundef zeroext %11, i32 noundef 0) #7
  call void @_ZN19StringArrayArgumentC1Ev(ptr noundef nonnull align 8 dereferenceable(8) %12)
  %13 = getelementptr inbounds %class.DCmdArgument.6, ptr %8, i32 0, i32 1
  store ptr %12, ptr %13, align 8
  %14 = getelementptr inbounds %class.GenDCmdArgument, ptr %8, i32 0, i32 8
  store i8 1, ptr %14, align 2
  %15 = call noundef zeroext i1 @_ZNK15GenDCmdArgument11has_defaultEv(ptr noundef nonnull align 8 dereferenceable(51) %8)
  br i1 %15, label %16, label %20

16:                                               ; preds = %2
  br label %17

17:                                               ; preds = %16
  %18 = load ptr, ptr @g_assert_poison, align 8
  store i8 88, ptr %18, align 1
  call void (i32, ptr, i32, ptr, ...) @_Z12report_fatal11VMErrorTypePKciS1_z(i32 noundef -536870912, ptr noundef @.str, i32 noundef 291, ptr noundef @.str.30) #9
  unreachable

19:                                               ; No predecessors!
  br label %20

20:                                               ; preds = %19, %2
  ret void
}