; Function Attrs: mustprogress nounwind uwtable
define hidden void @_ZN12DCmdArgumentIP19StringArrayArgumentE10init_valueEP10JavaThread(ptr nocapture noundef nonnull align 8 dereferenceable(64) %0, ptr nocapture noundef readnone %1) unnamed_addr #0 align 2 {
  %3 = tail call noundef ptr @_Z12AllocateHeapm8MEMFLAGSN17AllocFailStrategy13AllocFailEnumE(i64 noundef 8, i8 noundef zeroext 9, i32 noundef 0) #15
  %4 = tail call noundef ptr @_ZN6AnyObjnwEm8MEMFLAGS(i64 noundef 24, i8 noundef zeroext 23) #15
  %5 = icmp eq ptr %4, null
  br i1 %5, label %_ZN19StringArrayArgumentC2Ev.exit, label %6

6:                                                ; preds = %2
  %7 = tail call noundef ptr @_ZN27GrowableArrayCHeapAllocator8allocateEii8MEMFLAGS(i32 noundef 32, i32 noundef 8, i8 noundef zeroext 23) #15
  store i32 0, ptr %4, align 4
  %8 = getelementptr inbounds i8, ptr %4, i64 4
  store i32 32, ptr %8, align 4
  %9 = getelementptr inbounds i8, ptr %4, i64 8
  store ptr %7, ptr %9, align 8
  tail call void @llvm.memset.p0.i64(ptr noundef nonnull align 8 dereferenceable(256) %7, i8 0, i64 256, i1 false)
  %10 = getelementptr inbounds i8, ptr %4, i64 16
  store i64 47, ptr %10, align 8
  br label %_ZN19StringArrayArgumentC2Ev.exit

_ZN19StringArrayArgumentC2Ev.exit:                ; preds = %2, %6
  store ptr %4, ptr %3, align 8
  %11 = getelementptr inbounds i8, ptr %0, i64 56
  store ptr %3, ptr %11, align 8
  %12 = getelementptr inbounds i8, ptr %0, i64 50
  store i8 1, ptr %12, align 2
  %13 = getelementptr inbounds i8, ptr %0, i64 40
  %14 = load ptr, ptr %13, align 8
  %.not = icmp eq ptr %14, null
  br i1 %.not, label %17, label %15

15:                                               ; preds = %_ZN19StringArrayArgumentC2Ev.exit
  %16 = load ptr, ptr @g_assert_poison, align 8
  store i8 88, ptr %16, align 1
  tail call void (i32, ptr, i32, ptr, ...) @_Z12report_fatal11VMErrorTypePKciS1_z(i32 noundef -536870912, ptr noundef nonnull @.str, i32 noundef 291, ptr noundef nonnull @.str.30) #17
  unreachable

17:                                               ; preds = %_ZN19StringArrayArgumentC2Ev.exit
  ret void
}